target datalayout = "e-m:e-p270:32:32-p271:32:32-p272:64:64-i64:64-i128:128-f80:128-n8:16:32:64-S128"
target triple = "x86_64-pc-linux-gnu"

%"class.std::__cxx11::basic_string" = type { %"struct.std::__cxx11::basic_string<char>::_Alloc_hider", i64, %union.anon }
%"struct.std::__cxx11::basic_string<char>::_Alloc_hider" = type { ptr }
%union.anon = type { i64, [8 x i8] }
%"class.google::protobuf::internal::EpsCopyInputStream" = type { ptr, ptr, ptr, i32, i32, ptr, [32 x i8], i64, i32, i32 }
%"struct.std::pair.7" = type <{ ptr, i32, [4 x i8] }>

; Function Attrs: mustprogress nounwind uwtable
define available_externally noundef i64 @_ZNKSt7__cxx1112basic_stringIcSt11char_traitsIcESaIcEE4sizeEv(ptr noundef nonnull align 8 dereferenceable(32) %0) #7 align 2 {
  %2 = alloca ptr, align 8
  store ptr %0, ptr %2, align 8, !tbaa !59
  %3 = load ptr, ptr %2, align 8
  %4 = getelementptr inbounds nuw %"class.std::__cxx11::basic_string", ptr %3, i32 0, i32 1
  %5 = load i64, ptr %4, align 8, !tbaa !63
  ret i64 %5
}

; Function Attrs: mustprogress nounwind uwtable
define linkonce_odr void @_ZNSt4pairIPKciEC2IDniTnNSt9enable_ifIXaaclsr5_PCCPE22_MoveConstructiblePairIT_T0_EEclsr5_PCCPE30_ImplicitlyMoveConvertiblePairIS5_S6_EEEbE4typeELb1EEEOS5_OS6_(ptr noundef nonnull align 8 dereferenceable(12) %0, ptr noundef nonnull align 8 dereferenceable(8) %1, ptr noundef nonnull align 4 dereferenceable(4) %2) unnamed_addr #7 comdat align 2 {
  %4 = alloca ptr, align 8
  %5 = alloca ptr, align 8
  %6 = alloca ptr, align 8
  store ptr %0, ptr %4, align 8, !tbaa !112
  store ptr %1, ptr %5, align 8, !tbaa !45
  store ptr %2, ptr %6, align 8, !tbaa !29
  %7 = load ptr, ptr %4, align 8
  %8 = getelementptr inbounds nuw %"struct.std::pair.7", ptr %7, i32 0, i32 0
  store ptr null, ptr %8, align 8, !tbaa !114
  %9 = getelementptr inbounds nuw %"struct.std::pair.7", ptr %7, i32 0, i32 1
  %10 = load ptr, ptr %6, align 8, !tbaa !29
  %11 = load i32, ptr %10, align 4, !tbaa !19
  store i32 %11, ptr %9, align 8, !tbaa !116
  ret void
}

; Function Attrs: mustprogress nounwind uwtable
define linkonce_odr void @_ZNSt4pairIPKciEC2IS1_RjTnNSt9enable_ifIXaaclsr5_PCCPE22_MoveConstructiblePairIT_T0_EEclsr5_PCCPE30_ImplicitlyMoveConvertiblePairIS6_S7_EEEbE4typeELb1EEEOS6_OS7_(ptr noundef nonnull align 8 dereferenceable(12) %0, ptr noundef nonnull align 8 dereferenceable(8) %1, ptr noundef nonnull align 4 dereferenceable(4) %2) unnamed_addr #7 comdat align 2 {
  %4 = alloca ptr, align 8
  %5 = alloca ptr, align 8
  %6 = alloca ptr, align 8
  store ptr %0, ptr %4, align 8, !tbaa !112
  store ptr %1, ptr %5, align 8, !tbaa !54
  store ptr %2, ptr %6, align 8, !tbaa !29
  %7 = load ptr, ptr %4, align 8
  %8 = getelementptr inbounds nuw %"struct.std::pair.7", ptr %7, i32 0, i32 0
  %9 = load ptr, ptr %5, align 8, !tbaa !54
  %10 = load ptr, ptr %9, align 8, !tbaa !16
  store ptr %10, ptr %8, align 8, !tbaa !114
  %11 = getelementptr inbounds nuw %"struct.std::pair.7", ptr %7, i32 0, i32 1
  %12 = load ptr, ptr %6, align 8, !tbaa !29
  %13 = load i32, ptr %12, align 4, !tbaa !19
  store i32 %13, ptr %11, align 8, !tbaa !116
  ret void
}

; Function Attrs: mustprogress uwtable
define available_externally noundef nonnull align 8 dereferenceable(32) ptr @_ZNSt7__cxx1112basic_stringIcSt11char_traitsIcESaIcEE6assignEPKcm(ptr noundef nonnull align 8 dereferenceable(32) %0, ptr noundef %1, i64 noundef %2) #4 align 2 {
  %4 = alloca ptr, align 8
  %5 = alloca ptr, align 8
  %6 = alloca i64, align 8
  store ptr %0, ptr %4, align 8, !tbaa !59
  store ptr %1, ptr %5, align 8, !tbaa !16
  store i64 %2, ptr %6, align 8, !tbaa !72
  %7 = load ptr, ptr %4, align 8
  %8 = call noundef i64 @_ZNKSt7__cxx1112basic_stringIcSt11char_traitsIcESaIcEE4sizeEv(ptr noundef nonnull align 8 dereferenceable(32) %7) #3
  %9 = load ptr, ptr %5, align 8, !tbaa !16
  %10 = load i64, ptr %6, align 8, !tbaa !72
  %11 = call noundef nonnull align 8 dereferenceable(32) ptr @_ZNSt7__cxx1112basic_stringIcSt11char_traitsIcESaIcEE10_M_replaceEmmPKcm(ptr noundef nonnull align 8 dereferenceable(32) %7, i64 noundef 0, i64 noundef %8, ptr noundef %9, i64 noundef %10)
  ret ptr %11
}

; Function Attrs: mustprogress uwtable
define { ptr, i32 } @_ZN6google8protobuf8internal16ReadSizeFallbackEPKcj(ptr noundef %0, i32 noundef %1) #4 {
  %3 = alloca %"struct.std::pair.7", align 8
  %4 = alloca ptr, align 8
  %5 = alloca i32, align 4
  %6 = alloca i32, align 4
  %7 = alloca i32, align 4
  %8 = alloca i32, align 4
  %9 = alloca ptr, align 8
  %10 = alloca i32, align 4
  %11 = alloca ptr, align 8
  %12 = alloca i32, align 4
  %13 = alloca ptr, align 8
  %14 = alloca i32, align 4
  %15 = alloca ptr, align 8
  store ptr %0, ptr %4, align 8, !tbaa !16
  store i32 %1, ptr %5, align 4, !tbaa !19
  call void @llvm.lifetime.start.p0(i64 4, ptr %6) #3
  store i32 1, ptr %6, align 4, !tbaa !19
  br label %16

16:                                               ; preds = %51, %2
  %17 = load i32, ptr %6, align 4, !tbaa !19
  %18 = icmp ult i32 %17, 4
  br i1 %18, label %20, label %19

19:                                               ; preds = %16
  store i32 2, ptr %7, align 4
  br label %54

20:                                               ; preds = %16
  call void @llvm.lifetime.start.p0(i64 4, ptr %8) #3
  %21 = load ptr, ptr %4, align 8, !tbaa !16
  %22 = load i32, ptr %6, align 4, !tbaa !19
  %23 = zext i32 %22 to i64
  %24 = getelementptr inbounds nuw i8, ptr %21, i64 %23
  %25 = load i8, ptr %24, align 1, !tbaa !88
  %26 = zext i8 %25 to i32
  store i32 %26, ptr %8, align 4, !tbaa !19
  %27 = load i32, ptr %8, align 4, !tbaa !19
  %28 = sub i32 %27, 1
  %29 = load i32, ptr %6, align 4, !tbaa !19
  %30 = mul i32 7, %29
  %31 = shl i32 %28, %30
  %32 = load i32, ptr %5, align 4, !tbaa !19
  %33 = add i32 %32, %31
  store i32 %33, ptr %5, align 4, !tbaa !19
  %34 = load i32, ptr %8, align 4, !tbaa !19
  %35 = icmp ult i32 %34, 128
  %36 = xor i1 %35, true
  %37 = xor i1 %36, true
  %38 = zext i1 %37 to i64
  %39 = call i64 @llvm.expect.i64(i64 %38, i64 1)
  %40 = icmp ne i64 %39, 0
  br i1 %40, label %41, label %47

41:                                               ; preds = %20
  call void @llvm.lifetime.start.p0(i64 8, ptr %9) #3
  %42 = load ptr, ptr %4, align 8, !tbaa !16
  %43 = load i32, ptr %6, align 4, !tbaa !19
  %44 = zext i32 %43 to i64
  %45 = getelementptr inbounds nuw i8, ptr %42, i64 %44
  %46 = getelementptr inbounds i8, ptr %45, i64 1
  store ptr %46, ptr %9, align 8, !tbaa !16
  call void @_ZNSt4pairIPKciEC2IS1_RjTnNSt9enable_ifIXaaclsr5_PCCPE22_MoveConstructiblePairIT_T0_EEclsr5_PCCPE30_ImplicitlyMoveConvertiblePairIS6_S7_EEEbE4typeELb1EEEOS6_OS7_(ptr noundef nonnull align 8 dereferenceable(12) %3, ptr noundef nonnull align 8 dereferenceable(8) %9, ptr noundef nonnull align 4 dereferenceable(4) %5)
  call void @llvm.lifetime.end.p0(i64 8, ptr %9) #3
  store i32 1, ptr %7, align 4
  br label %48

47:                                               ; preds = %20
  store i32 0, ptr %7, align 4
  br label %48

48:                                               ; preds = %47, %41
  call void @llvm.lifetime.end.p0(i64 4, ptr %8) #3
  %49 = load i32, ptr %7, align 4
  switch i32 %49, label %54 [
    i32 0, label %50
  ]

50:                                               ; preds = %48
  br label %51

51:                                               ; preds = %50
  %52 = load i32, ptr %6, align 4, !tbaa !19
  %53 = add i32 %52, 1
  store i32 %53, ptr %6, align 4, !tbaa !19
  br label %16, !llvm.loop !111

54:                                               ; preds = %48, %19
  call void @llvm.lifetime.end.p0(i64 4, ptr %6) #3
  %55 = load i32, ptr %7, align 4
  switch i32 %55, label %85 [
    i32 2, label %56
    i32 1, label %83
  ]

56:                                               ; preds = %54
  call void @llvm.lifetime.start.p0(i64 4, ptr %10) #3
  %57 = load ptr, ptr %4, align 8, !tbaa !16
  %58 = getelementptr inbounds i8, ptr %57, i64 4
  %59 = load i8, ptr %58, align 1, !tbaa !88
  %60 = zext i8 %59 to i32
  store i32 %60, ptr %10, align 4, !tbaa !19
  %61 = load i32, ptr %10, align 4, !tbaa !19
  %62 = icmp uge i32 %61, 8
  %63 = zext i1 %62 to i64
  %64 = call i64 @llvm.expect.i64(i64 %63, i64 0)
  %65 = icmp ne i64 %64, 0
  br i1 %65, label %66, label %67

66:                                               ; preds = %56
  call void @llvm.lifetime.start.p0(i64 8, ptr %11) #3
  store ptr null, ptr %11, align 8, !tbaa !31
  call void @llvm.lifetime.start.p0(i64 4, ptr %12) #3
  store i32 0, ptr %12, align 4, !tbaa !19
  call void @_ZNSt4pairIPKciEC2IDniTnNSt9enable_ifIXaaclsr5_PCCPE22_MoveConstructiblePairIT_T0_EEclsr5_PCCPE30_ImplicitlyMoveConvertiblePairIS5_S6_EEEbE4typeELb1EEEOS5_OS6_(ptr noundef nonnull align 8 dereferenceable(12) %3, ptr noundef nonnull align 8 dereferenceable(8) %11, ptr noundef nonnull align 4 dereferenceable(4) %12)
  call void @llvm.lifetime.end.p0(i64 4, ptr %12) #3
  call void @llvm.lifetime.end.p0(i64 8, ptr %11) #3
  store i32 1, ptr %7, align 4
  br label %82

67:                                               ; preds = %56
  %68 = load i32, ptr %10, align 4, !tbaa !19
  %69 = sub i32 %68, 1
  %70 = shl i32 %69, 28
  %71 = load i32, ptr %5, align 4, !tbaa !19
  %72 = add i32 %71, %70
  store i32 %72, ptr %5, align 4, !tbaa !19
  %73 = load i32, ptr %5, align 4, !tbaa !19
  %74 = icmp ugt i32 %73, 2147483631
  %75 = zext i1 %74 to i64
  %76 = call i64 @llvm.expect.i64(i64 %75, i64 0)
  %77 = icmp ne i64 %76, 0
  br i1 %77, label %78, label %79

78:                                               ; preds = %67
  call void @llvm.lifetime.start.p0(i64 8, ptr %13) #3
  store ptr null, ptr %13, align 8, !tbaa !31
  call void @llvm.lifetime.start.p0(i64 4, ptr %14) #3
  store i32 0, ptr %14, align 4, !tbaa !19
  call void @_ZNSt4pairIPKciEC2IDniTnNSt9enable_ifIXaaclsr5_PCCPE22_MoveConstructiblePairIT_T0_EEclsr5_PCCPE30_ImplicitlyMoveConvertiblePairIS5_S6_EEEbE4typeELb1EEEOS5_OS6_(ptr noundef nonnull align 8 dereferenceable(12) %3, ptr noundef nonnull align 8 dereferenceable(8) %13, ptr noundef nonnull align 4 dereferenceable(4) %14)
  call void @llvm.lifetime.end.p0(i64 4, ptr %14) #3
  call void @llvm.lifetime.end.p0(i64 8, ptr %13) #3
  store i32 1, ptr %7, align 4
  br label %82

79:                                               ; preds = %67
  call void @llvm.lifetime.start.p0(i64 8, ptr %15) #3
  %80 = load ptr, ptr %4, align 8, !tbaa !16
  %81 = getelementptr inbounds i8, ptr %80, i64 5
  store ptr %81, ptr %15, align 8, !tbaa !16
  call void @_ZNSt4pairIPKciEC2IS1_RjTnNSt9enable_ifIXaaclsr5_PCCPE22_MoveConstructiblePairIT_T0_EEclsr5_PCCPE30_ImplicitlyMoveConvertiblePairIS6_S7_EEEbE4typeELb1EEEOS6_OS7_(ptr noundef nonnull align 8 dereferenceable(12) %3, ptr noundef nonnull align 8 dereferenceable(8) %15, ptr noundef nonnull align 4 dereferenceable(4) %5)
  call void @llvm.lifetime.end.p0(i64 8, ptr %15) #3
  store i32 1, ptr %7, align 4
  br label %82

82:                                               ; preds = %79, %78, %66
  call void @llvm.lifetime.end.p0(i64 4, ptr %10) #3
  br label %83

83:                                               ; preds = %82, %54
  %84 = load { ptr, i32 }, ptr %3, align 8
  ret { ptr, i32 } %84

85:                                               ; preds = %54
  unreachable
}

; Function Attrs: mustprogress uwtable
define linkonce_odr noundef ptr @_ZN6google8protobuf8internal18EpsCopyInputStream10ReadStringEPKciPNSt7__cxx1112basic_stringIcSt11char_traitsIcESaIcEEE(ptr noundef nonnull align 8 dereferenceable(88) %0, ptr noundef %1, i32 noundef %2, ptr noundef %3) #4 comdat align 2 {
  %5 = alloca ptr, align 8
  %6 = alloca ptr, align 8
  %7 = alloca ptr, align 8
  %8 = alloca i32, align 4
  %9 = alloca ptr, align 8
  store ptr %0, ptr %6, align 8, !tbaa !3
  store ptr %1, ptr %7, align 8, !tbaa !16
  store i32 %2, ptr %8, align 4, !tbaa !19
  store ptr %3, ptr %9, align 8, !tbaa !59
  %10 = load ptr, ptr %6, align 8
  %11 = load i32, ptr %8, align 4, !tbaa !19
  %12 = sext i32 %11 to i64
  %13 = getelementptr inbounds nuw %"class.google::protobuf::internal::EpsCopyInputStream", ptr %10, i32 0, i32 1
  %14 = load ptr, ptr %13, align 8, !tbaa !17
  %15 = getelementptr inbounds i8, ptr %14, i64 16
  %16 = load ptr, ptr %7, align 8, !tbaa !16
  %17 = ptrtoint ptr %15 to i64
  %18 = ptrtoint ptr %16 to i64
  %19 = sub i64 %17, %18
  %20 = icmp sle i64 %12, %19
  br i1 %20, label %21, label %31

21:                                               ; preds = %4
  %22 = load ptr, ptr %9, align 8, !tbaa !59
  %23 = load ptr, ptr %7, align 8, !tbaa !16
  %24 = load i32, ptr %8, align 4, !tbaa !19
  %25 = sext i32 %24 to i64
  %26 = call noundef nonnull align 8 dereferenceable(32) ptr @_ZNSt7__cxx1112basic_stringIcSt11char_traitsIcESaIcEE6assignEPKcm(ptr noundef nonnull align 8 dereferenceable(32) %22, ptr noundef %23, i64 noundef %25)
  %27 = load ptr, ptr %7, align 8, !tbaa !16
  %28 = load i32, ptr %8, align 4, !tbaa !19
  %29 = sext i32 %28 to i64
  %30 = getelementptr inbounds i8, ptr %27, i64 %29
  store ptr %30, ptr %5, align 8
  br label %36

31:                                               ; preds = %4
  %32 = load ptr, ptr %7, align 8, !tbaa !16
  %33 = load i32, ptr %8, align 4, !tbaa !19
  %34 = load ptr, ptr %9, align 8, !tbaa !59
  %35 = call noundef ptr @_ZN6google8protobuf8internal18EpsCopyInputStream18ReadStringFallbackEPKciPNSt7__cxx1112basic_stringIcSt11char_traitsIcESaIcEEE(ptr noundef nonnull align 8 dereferenceable(88) %10, ptr noundef %32, i32 noundef %33, ptr noundef %34)
  store ptr %35, ptr %5, align 8
  br label %36

36:                                               ; preds = %31, %21
  %37 = load ptr, ptr %5, align 8
  ret ptr %37
}

; Function Attrs: inlinehint mustprogress uwtable
define linkonce_odr noundef i32 @_ZN6google8protobuf8internal8ReadSizeEPPKc(ptr noundef %0) #6 comdat {
  %2 = alloca i32, align 4
  %3 = alloca ptr, align 8
  %4 = alloca ptr, align 8
  %5 = alloca i32, align 4
  %6 = alloca i32, align 4
  %7 = alloca %"struct.std::pair.7", align 8
  %8 = alloca { ptr, i32 }, align 8
  store ptr %0, ptr %3, align 8, !tbaa !54
  call void @llvm.lifetime.start.p0(i64 8, ptr %4) #3
  %9 = load ptr, ptr %3, align 8, !tbaa !54
  %10 = load ptr, ptr %9, align 8, !tbaa !16
  store ptr %10, ptr %4, align 8, !tbaa !16
  call void @llvm.lifetime.start.p0(i64 4, ptr %5) #3
  %11 = load ptr, ptr %4, align 8, !tbaa !16
  %12 = getelementptr inbounds i8, ptr %11, i64 0
  %13 = load i8, ptr %12, align 1, !tbaa !88
  %14 = zext i8 %13 to i32
  store i32 %14, ptr %5, align 4, !tbaa !19
  %15 = load i32, ptr %5, align 4, !tbaa !19
  %16 = icmp ult i32 %15, 128
  br i1 %16, label %17, label %22

17:                                               ; preds = %1
  %18 = load ptr, ptr %4, align 8, !tbaa !16
  %19 = getelementptr inbounds i8, ptr %18, i64 1
  %20 = load ptr, ptr %3, align 8, !tbaa !54
  store ptr %19, ptr %20, align 8, !tbaa !16
  %21 = load i32, ptr %5, align 4, !tbaa !19
  store i32 %21, ptr %2, align 4
  store i32 1, ptr %6, align 4
  br label %31

22:                                               ; preds = %1
  call void @llvm.lifetime.start.p0(i64 16, ptr %7) #3
  %23 = load ptr, ptr %4, align 8, !tbaa !16
  %24 = load i32, ptr %5, align 4, !tbaa !19
  %25 = call { ptr, i32 } @_ZN6google8protobuf8internal16ReadSizeFallbackEPKcj(ptr noundef %23, i32 noundef %24)
  store { ptr, i32 } %25, ptr %8, align 8
  call void @llvm.memcpy.p0.p0.i64(ptr align 8 %7, ptr align 8 %8, i64 12, i1 false)
  %26 = getelementptr inbounds nuw %"struct.std::pair.7", ptr %7, i32 0, i32 0
  %27 = load ptr, ptr %26, align 8, !tbaa !114
  %28 = load ptr, ptr %3, align 8, !tbaa !54
  store ptr %27, ptr %28, align 8, !tbaa !16
  %29 = getelementptr inbounds nuw %"struct.std::pair.7", ptr %7, i32 0, i32 1
  %30 = load i32, ptr %29, align 8, !tbaa !116
  store i32 %30, ptr %2, align 4
  store i32 1, ptr %6, align 4
  call void @llvm.lifetime.end.p0(i64 16, ptr %7) #3
  br label %31

31:                                               ; preds = %22, %17
  call void @llvm.lifetime.end.p0(i64 4, ptr %5) #3
  call void @llvm.lifetime.end.p0(i64 8, ptr %4) #3
  %32 = load i32, ptr %2, align 4
  ret i32 %32
}

; Function Attrs: mustprogress uwtable
define noundef ptr @_ZN6google8protobuf8internal24InlineGreedyStringParserEPNSt7__cxx1112basic_stringIcSt11char_traitsIcESaIcEEEPKcPNS1_12ParseContextE(ptr noundef %0, ptr noundef %1, ptr noundef %2) #4 {
  %4 = alloca ptr, align 8
  %5 = alloca ptr, align 8
  %6 = alloca ptr, align 8
  %7 = alloca ptr, align 8
  %8 = alloca i32, align 4
  %9 = alloca i32, align 4
  store ptr %0, ptr %5, align 8, !tbaa !59
  store ptr %1, ptr %6, align 8, !tbaa !16
  store ptr %2, ptr %7, align 8, !tbaa !77
  call void @llvm.lifetime.start.p0(i64 4, ptr %8) #3
  %10 = call noundef i32 @_ZN6google8protobuf8internal8ReadSizeEPPKc(ptr noundef %6)
  store i32 %10, ptr %8, align 4, !tbaa !19
  %11 = load ptr, ptr %6, align 8, !tbaa !16
  %12 = icmp ne ptr %11, null
  br i1 %12, label %14, label %13

13:                                               ; preds = %3
  store ptr null, ptr %4, align 8
  store i32 1, ptr %9, align 4
  br label %20

14:                                               ; preds = %3
  %15 = load ptr, ptr %7, align 8, !tbaa !77
  %16 = load ptr, ptr %6, align 8, !tbaa !16
  %17 = load i32, ptr %8, align 4, !tbaa !19
  %18 = load ptr, ptr %5, align 8, !tbaa !59
  %19 = call noundef ptr @_ZN6google8protobuf8internal18EpsCopyInputStream10ReadStringEPKciPNSt7__cxx1112basic_stringIcSt11char_traitsIcESaIcEEE(ptr noundef nonnull align 8 dereferenceable(88) %15, ptr noundef %16, i32 noundef %17, ptr noundef %18)
  store ptr %19, ptr %4, align 8
  store i32 1, ptr %9, align 4
  br label %20

20:                                               ; preds = %14, %13
  call void @llvm.lifetime.end.p0(i64 4, ptr %8) #3
  %21 = load ptr, ptr %4, align 8
  ret ptr %21
}