; Function Attrs: mustprogress uwtable
define noundef ptr @_ZN6google8protobuf8internal24InlineGreedyStringParserEPNSt7__cxx1112basic_stringIcSt11char_traitsIcESaIcEEEPKcPNS1_12ParseContextE(ptr noundef %0, ptr noundef %1, ptr noundef %2) local_unnamed_addr #3 {
  %4 = load i8, ptr %1, align 1, !tbaa !25
  %5 = zext i8 %4 to i32
  %6 = icmp sgt i8 %4, -1
  br i1 %6, label %7, label %.critedge.i.i

7:                                                ; preds = %3
  %8 = getelementptr inbounds nuw i8, ptr %1, i64 1
  br label %33

9:                                                ; preds = %.critedge.i.i
  %indvars.iv.next.i.i = add nuw nsw i64 %indvars.iv.i.i, 1
  %exitcond.not.i.i = icmp eq i64 %indvars.iv.next.i.i, 4
  br i1 %exitcond.not.i.i, label %22, label %.critedge.i.i, !llvm.loop !29

.critedge.i.i:                                    ; preds = %3, %9
  %indvars.iv.i.i = phi i64 [ %indvars.iv.next.i.i, %9 ], [ 1, %3 ]
  %.02234.i.i = phi i32 [ %17, %9 ], [ %5, %3 ]
  %10 = getelementptr inbounds nuw i8, ptr %1, i64 %indvars.iv.i.i
  %11 = load i8, ptr %10, align 1, !tbaa !25
  %12 = zext i8 %11 to i32
  %13 = add nsw i32 %12, -1
  %14 = trunc i64 %indvars.iv.i.i to i32
  %15 = mul i32 %14, 7
  %16 = shl nsw i32 %13, %15
  %17 = add i32 %16, %.02234.i.i
  %18 = icmp slt i8 %11, 0
  br i1 %18, label %9, label %19, !prof !27

19:                                               ; preds = %.critedge.i.i
  %20 = getelementptr inbounds nuw i8, ptr %1, i64 %indvars.iv.i.i
  %21 = getelementptr inbounds nuw i8, ptr %20, i64 1
  br label %33

22:                                               ; preds = %9
  %23 = getelementptr inbounds nuw i8, ptr %1, i64 4
  %24 = load i8, ptr %23, align 1, !tbaa !25
  %25 = icmp ugt i8 %24, 7
  br i1 %25, label %_ZN6google8protobuf8internal8ReadSizeEPPKc.exit, label %26, !prof !27

26:                                               ; preds = %22
  %27 = zext nneg i8 %24 to i32
  %28 = shl nuw nsw i32 %27, 28
  %29 = add i32 %17, -268435456
  %30 = add i32 %29, %28
  %31 = icmp ugt i32 %30, 2147483631
  %32 = getelementptr inbounds nuw i8, ptr %1, i64 5
  br i1 %31, label %_ZN6google8protobuf8internal8ReadSizeEPPKc.exit, label %33, !prof !27

33:                                               ; preds = %7, %19, %26
  %storemerge.i.ph = phi ptr [ %32, %26 ], [ %21, %19 ], [ %8, %7 ]
  %.0.i.ph = phi i32 [ %30, %26 ], [ %17, %19 ], [ %5, %7 ]
  %34 = sext i32 %.0.i.ph to i64
  %35 = getelementptr inbounds nuw i8, ptr %2, i64 8
  %36 = load ptr, ptr %35, align 8, !tbaa !13
  %37 = getelementptr inbounds nuw i8, ptr %36, i64 16
  %38 = ptrtoint ptr %37 to i64
  %39 = ptrtoint ptr %storemerge.i.ph to i64
  %40 = sub i64 %38, %39
  %.not.i = icmp slt i64 %40, %34
  br i1 %.not.i, label %46, label %41

41:                                               ; preds = %33
  %42 = getelementptr inbounds nuw i8, ptr %0, i64 8
  %43 = load i64, ptr %42, align 8, !tbaa !34
  %44 = tail call noundef nonnull align 8 dereferenceable(32) ptr @_ZNSt7__cxx1112basic_stringIcSt11char_traitsIcESaIcEE10_M_replaceEmmPKcm(ptr noundef nonnull align 8 dereferenceable(32) %0, i64 noundef 0, i64 noundef %43, ptr noundef nonnull %storemerge.i.ph, i64 noundef %34)
  %45 = getelementptr inbounds i8, ptr %storemerge.i.ph, i64 %34
  br label %_ZN6google8protobuf8internal8ReadSizeEPPKc.exit

46:                                               ; preds = %33
  %47 = tail call noundef ptr @_ZN6google8protobuf8internal18EpsCopyInputStream18ReadStringFallbackEPKciPNSt7__cxx1112basic_stringIcSt11char_traitsIcESaIcEEE(ptr noundef nonnull align 8 dereferenceable(88) %2, ptr noundef nonnull %storemerge.i.ph, i32 noundef %.0.i.ph, ptr noundef %0)
  br label %_ZN6google8protobuf8internal8ReadSizeEPPKc.exit

_ZN6google8protobuf8internal8ReadSizeEPPKc.exit:  ; preds = %26, %46, %41, %22
  %.0 = phi ptr [ null, %22 ], [ %45, %41 ], [ %47, %46 ], [ null, %26 ]
  ret ptr %.0
}